(dp0
Vengine
p1
S'pdflatex'
p2
sVpackages
p3
c__builtin__
set
p4
((lp5
Vhyperref
p6
aVenumitem
p7
aVepsf
p8
aVsidecap
p9
aVamsmath
p10
aVcolor
p11
aVgraphicx
p12
aVoutlines
p13
aVnatbib
p14
atp15
Rp16
sVfiles_with_guttermarks
p17
g4
((lp18
V/Users/steven/Documents/thesis/proposal/./proposal.tex
p19
aS'proposal.tex'
p20
atp21
Rp22
sVsynctex
p23
I01
s.